target datalayout = "e-m:e-p270:32:32-p271:32:32-p272:64:64-i64:64-i128:128-f80:128-n8:16:32:64-S128"
target triple = "x86_64-pc-linux-gnu"

%"class.ozz::animation::Animation" = type { float, i32, ptr, ptr, %"struct.ozz::span", %"struct.ozz::animation::Animation::TKeyframesCtrl", %"struct.ozz::animation::Animation::TKeyframesCtrl", %"struct.ozz::animation::Animation::TKeyframesCtrl", %"struct.ozz::span.3", %"struct.ozz::span.4", %"struct.ozz::span.3" }
%"struct.ozz::span" = type { ptr, i64 }
%"struct.ozz::animation::Animation::TKeyframesCtrl" = type <{ %"struct.ozz::span.0", %"struct.ozz::span.1", %"struct.ozz::span.0", %"struct.ozz::span.2", float, [4 x i8] }>
%"struct.ozz::span.1" = type { ptr, i64 }
%"struct.ozz::span.0" = type { ptr, i64 }
%"struct.ozz::span.2" = type { ptr, i64 }
%"struct.ozz::span.4" = type { ptr, i64 }
%"struct.ozz::span.3" = type { ptr, i64 }

; Function Attrs: mustprogress nounwind uwtable
define linkonce_odr dso_local void @_ZN3ozz4spanIjEC2Ev(ptr noundef nonnull align 8 dereferenceable(16) %0) unnamed_addr #5 comdat align 2 {
  %2 = alloca ptr, align 8
  store ptr %0, ptr %2, align 8, !tbaa !86
  %3 = load ptr, ptr %2, align 8
  %4 = getelementptr inbounds nuw %"struct.ozz::span.2", ptr %3, i32 0, i32 0
  store ptr null, ptr %4, align 8, !tbaa !88
  %5 = getelementptr inbounds nuw %"struct.ozz::span.2", ptr %3, i32 0, i32 1
  store i64 0, ptr %5, align 8, !tbaa !89
  ret void
}

; Function Attrs: mustprogress nounwind uwtable
define linkonce_odr dso_local void @_ZN3ozz4spanItEC2Ev(ptr noundef nonnull align 8 dereferenceable(16) %0) unnamed_addr #5 comdat align 2 {
  %2 = alloca ptr, align 8
  store ptr %0, ptr %2, align 8, !tbaa !90
  %3 = load ptr, ptr %2, align 8
  %4 = getelementptr inbounds nuw %"struct.ozz::span.1", ptr %3, i32 0, i32 0
  store ptr null, ptr %4, align 8, !tbaa !92
  %5 = getelementptr inbounds nuw %"struct.ozz::span.1", ptr %3, i32 0, i32 1
  store i64 0, ptr %5, align 8, !tbaa !93
  ret void
}

; Function Attrs: mustprogress nounwind uwtable
define linkonce_odr dso_local void @_ZN3ozz4spanIhEC2Ev(ptr noundef nonnull align 8 dereferenceable(16) %0) unnamed_addr #5 comdat align 2 {
  %2 = alloca ptr, align 8
  store ptr %0, ptr %2, align 8, !tbaa !82
  %3 = load ptr, ptr %2, align 8
  %4 = getelementptr inbounds nuw %"struct.ozz::span.0", ptr %3, i32 0, i32 0
  store ptr null, ptr %4, align 8, !tbaa !84
  %5 = getelementptr inbounds nuw %"struct.ozz::span.0", ptr %3, i32 0, i32 1
  store i64 0, ptr %5, align 8, !tbaa !85
  ret void
}

; Function Attrs: mustprogress nounwind uwtable
define linkonce_odr dso_local void @_ZN3ozz4spanINS_9animation8internal13QuaternionKeyEEC2Ev(ptr noundef nonnull align 8 dereferenceable(16) %0) unnamed_addr #5 comdat align 2 {
  %2 = alloca ptr, align 8
  store ptr %0, ptr %2, align 8, !tbaa !41
  %3 = load ptr, ptr %2, align 8
  %4 = getelementptr inbounds nuw %"struct.ozz::span.4", ptr %3, i32 0, i32 0
  store ptr null, ptr %4, align 8, !tbaa !43
  %5 = getelementptr inbounds nuw %"struct.ozz::span.4", ptr %3, i32 0, i32 1
  store i64 0, ptr %5, align 8, !tbaa !44
  ret void
}

; Function Attrs: mustprogress nounwind uwtable
define linkonce_odr dso_local void @_ZN3ozz4spanINS_9animation8internal9Float3KeyEEC2Ev(ptr noundef nonnull align 8 dereferenceable(16) %0) unnamed_addr #5 comdat align 2 {
  %2 = alloca ptr, align 8
  store ptr %0, ptr %2, align 8, !tbaa !37
  %3 = load ptr, ptr %2, align 8
  %4 = getelementptr inbounds nuw %"struct.ozz::span.3", ptr %3, i32 0, i32 0
  store ptr null, ptr %4, align 8, !tbaa !39
  %5 = getelementptr inbounds nuw %"struct.ozz::span.3", ptr %3, i32 0, i32 1
  store i64 0, ptr %5, align 8, !tbaa !40
  ret void
}

; Function Attrs: inlinehint mustprogress uwtable
define linkonce_odr dso_local void @_ZN3ozz9animation9Animation14TKeyframesCtrlILb0EEC2Ev(ptr noundef nonnull align 8 dereferenceable(68) %0) unnamed_addr #6 comdat align 2 {
  %2 = alloca ptr, align 8
  store ptr %0, ptr %2, align 8, !tbaa !34
  %3 = load ptr, ptr %2, align 8
  %4 = getelementptr inbounds nuw %"struct.ozz::animation::Animation::TKeyframesCtrl", ptr %3, i32 0, i32 0
  call void @_ZN3ozz4spanIhEC2Ev(ptr noundef nonnull align 8 dereferenceable(16) %4)
  %5 = getelementptr inbounds nuw %"struct.ozz::animation::Animation::TKeyframesCtrl", ptr %3, i32 0, i32 1
  call void @_ZN3ozz4spanItEC2Ev(ptr noundef nonnull align 8 dereferenceable(16) %5)
  %6 = getelementptr inbounds nuw %"struct.ozz::animation::Animation::TKeyframesCtrl", ptr %3, i32 0, i32 2
  call void @_ZN3ozz4spanIhEC2Ev(ptr noundef nonnull align 8 dereferenceable(16) %6)
  %7 = getelementptr inbounds nuw %"struct.ozz::animation::Animation::TKeyframesCtrl", ptr %3, i32 0, i32 3
  call void @_ZN3ozz4spanIjEC2Ev(ptr noundef nonnull align 8 dereferenceable(16) %7)
  %8 = getelementptr inbounds nuw %"struct.ozz::animation::Animation::TKeyframesCtrl", ptr %3, i32 0, i32 4
  store float 0.000000e+00, ptr %8, align 8, !tbaa !36
  ret void
}

; Function Attrs: mustprogress nounwind uwtable
define linkonce_odr dso_local void @_ZN3ozz4spanIfEC2Ev(ptr noundef nonnull align 8 dereferenceable(16) %0) unnamed_addr #5 comdat align 2 {
  %2 = alloca ptr, align 8
  store ptr %0, ptr %2, align 8, !tbaa !30
  %3 = load ptr, ptr %2, align 8
  %4 = getelementptr inbounds nuw %"struct.ozz::span", ptr %3, i32 0, i32 0
  store ptr null, ptr %4, align 8, !tbaa !32
  %5 = getelementptr inbounds nuw %"struct.ozz::span", ptr %3, i32 0, i32 1
  store i64 0, ptr %5, align 8, !tbaa !33
  ret void
}

; Function Attrs: mustprogress uwtable
define dso_local void @_ZN3ozz9animation9AnimationC2EOS1_(ptr noundef nonnull align 8 dereferenceable(304) %0, ptr noundef nonnull align 8 dereferenceable(304) %1) unnamed_addr #4 align 2 {
  %3 = alloca ptr, align 8
  %4 = alloca ptr, align 8
  store ptr %0, ptr %3, align 8, !tbaa !4
  store ptr %1, ptr %4, align 8, !tbaa !4
  %5 = load ptr, ptr %3, align 8
  %6 = getelementptr inbounds nuw %"class.ozz::animation::Animation", ptr %5, i32 0, i32 0
  store float 0.000000e+00, ptr %6, align 8, !tbaa !9
  %7 = getelementptr inbounds nuw %"class.ozz::animation::Animation", ptr %5, i32 0, i32 1
  store i32 0, ptr %7, align 4, !tbaa !27
  %8 = getelementptr inbounds nuw %"class.ozz::animation::Animation", ptr %5, i32 0, i32 2
  store ptr null, ptr %8, align 8, !tbaa !28
  %9 = getelementptr inbounds nuw %"class.ozz::animation::Animation", ptr %5, i32 0, i32 3
  store ptr null, ptr %9, align 8, !tbaa !29
  %10 = getelementptr inbounds nuw %"class.ozz::animation::Animation", ptr %5, i32 0, i32 4
  call void @_ZN3ozz4spanIfEC2Ev(ptr noundef nonnull align 8 dereferenceable(16) %10)
  %11 = getelementptr inbounds nuw %"class.ozz::animation::Animation", ptr %5, i32 0, i32 5
  call void @_ZN3ozz9animation9Animation14TKeyframesCtrlILb0EEC2Ev(ptr noundef nonnull align 8 dereferenceable(68) %11)
  %12 = getelementptr inbounds nuw %"class.ozz::animation::Animation", ptr %5, i32 0, i32 6
  call void @_ZN3ozz9animation9Animation14TKeyframesCtrlILb0EEC2Ev(ptr noundef nonnull align 8 dereferenceable(68) %12)
  %13 = getelementptr inbounds nuw %"class.ozz::animation::Animation", ptr %5, i32 0, i32 7
  call void @_ZN3ozz9animation9Animation14TKeyframesCtrlILb0EEC2Ev(ptr noundef nonnull align 8 dereferenceable(68) %13)
  %14 = getelementptr inbounds nuw %"class.ozz::animation::Animation", ptr %5, i32 0, i32 8
  call void @_ZN3ozz4spanINS_9animation8internal9Float3KeyEEC2Ev(ptr noundef nonnull align 8 dereferenceable(16) %14)
  %15 = getelementptr inbounds nuw %"class.ozz::animation::Animation", ptr %5, i32 0, i32 9
  call void @_ZN3ozz4spanINS_9animation8internal13QuaternionKeyEEC2Ev(ptr noundef nonnull align 8 dereferenceable(16) %15)
  %16 = getelementptr inbounds nuw %"class.ozz::animation::Animation", ptr %5, i32 0, i32 10
  call void @_ZN3ozz4spanINS_9animation8internal9Float3KeyEEC2Ev(ptr noundef nonnull align 8 dereferenceable(16) %16)
  %17 = load ptr, ptr %4, align 8, !tbaa !4
  %18 = call noundef nonnull align 8 dereferenceable(304) ptr @_ZN3ozz9animation9AnimationaSEOS1_(ptr noundef nonnull align 8 dereferenceable(304) %5, ptr noundef nonnull align 8 dereferenceable(304) %17)
  ret void
}