; Function Attrs: mustprogress nofree norecurse nosync nounwind willreturn memory(argmem: readwrite) uwtable
define dso_local void @_ZN3ozz9animation9AnimationC2EOS1_(ptr noundef nonnull align 8 dereferenceable(304) initializes((0, 108), (112, 180), (184, 252), (256, 304)) %0, ptr noundef nonnull align 8 dereferenceable(304) %1) unnamed_addr #3 align 2 {
  %3 = getelementptr inbounds nuw i8, ptr %0, i64 112
  tail call void @llvm.memset.p0.i64(ptr noundef nonnull align 8 dereferenceable(68) %3, i8 0, i64 68, i1 false)
  %4 = getelementptr inbounds nuw i8, ptr %0, i64 184
  tail call void @llvm.memset.p0.i64(ptr noundef nonnull align 8 dereferenceable(68) %4, i8 0, i64 68, i1 false)
  %5 = getelementptr inbounds nuw i8, ptr %0, i64 256
  tail call void @llvm.memset.p0.i64(ptr noundef nonnull align 8 dereferenceable(108) %0, i8 0, i64 108, i1 false)
  tail call void @llvm.memset.p0.i64(ptr noundef nonnull align 8 dereferenceable(48) %5, i8 0, i64 48, i1 false)
  %6 = tail call noundef nonnull align 8 dereferenceable(304) ptr @_ZN3ozz9animation9AnimationaSEOS1_(ptr noundef nonnull align 8 dereferenceable(304) %0, ptr noundef nonnull align 8 dereferenceable(304) %1)
  ret void
}